(lp1
(lp2
(I1
tp3
a(I2
tp4
a(I3
tp5
a(I6
tp6
a(I7
tp7
a(I8
tp8
a(I10
tp9
a(I11
tp10
a(I8204
tp11
a(I8194
tp12
a(I16
tp13
a(I17
tp14
a(I18
tp15
a(I19
tp16
a(I8212
tp17
a(I23
tp18
a(I24
tp19
a(I25
tp20
a(I26
tp21
a(I27
tp22
a(I28
tp23
a(I31
tp24
a(I32
tp25
a(I33
tp26
a(I36
tp27
a(I37
tp28
a(I38
tp29
a(I39
tp30
a(I40
tp31
a(I41
tp32
a(I42
tp33
a(I43
tp34
a(I44
tp35
a(I45
tp36
a(I46
tp37
a(I47
tp38
a(I16432
tp39
a(I49
tp40
a(I50
tp41
a(I51
tp42
a(I52
tp43
a(I53
tp44
a(I54
tp45
a(I55
tp46
a(I56
tp47
a(I57
tp48
a(I59
tp49
a(I60
tp50
a(I273
tp51
a(I62
tp52
a(I10933
tp53
a(I65
tp54
a(I66
tp55
a(I67
tp56
a(I68
tp57
a(I69
tp58
a(I70
tp59
a(I71
tp60
a(I72
tp61
a(I12
tp62
a(I74
tp63
a(I76
tp64
a(I8269
tp65
a(I78
tp66
a(I13
tp67
a(I80
tp68
a(I81
tp69
a(I83
tp70
a(I84
tp71
a(I85
tp72
a(I8278
tp73
a(I87
tp74
a(I88
tp75
a(I89
tp76
a(I90
tp77
a(I92
tp78
a(I93
tp79
a(I94
tp80
a(I95
tp81
a(I96
tp82
a(I8289
tp83
a(I98
tp84
a(I99
tp85
a(I100
tp86
a(I101
tp87
a(I102
tp88
a(I103
tp89
a(I104
tp90
a(I2748
tp91
a(I106
tp92
a(I108
tp93
a(I109
tp94
a(I111
tp95
a(I112
tp96
a(I113
tp97
a(I115
tp98
a(I8309
tp99
a(I118
tp100
a(I120
tp101
a(I121
tp102
a(I122
tp103
a(I124
tp104
a(I125
tp105
a(I8318
tp106
a(I127
tp107
a(I128
tp108
a(I8321
tp109
a(I130
tp110
a(I132
tp111
a(I134
tp112
a(I9580
tp113
a(I139
tp114
a(I142
tp115
a(I148
tp116
a(I149
tp117
a(I151
tp118
a(I152
tp119
a(I153
tp120
a(I154
tp121
a(I156
tp122
a(I157
tp123
a(I158
tp124
a(I160
tp125
a(I162
tp126
a(I164
tp127
a(I165
tp128
a(I166
tp129
a(I167
tp130
a(I168
tp131
a(I169
tp132
a(I170
tp133
a(I171
tp134
a(I172
tp135
a(I174
tp136
a(I175
tp137
a(I176
tp138
a(I177
tp139
a(I178
tp140
a(I1395
tp141
a(I180
tp142
a(I181
tp143
a(I185
tp144
a(I186
tp145
a(I187
tp146
a(I188
tp147
a(I189
tp148
a(I190
tp149
a(I191
tp150
a(I192
tp151
a(I193
tp152
a(I194
tp153
a(I195
tp154
a(I196
tp155
a(I9590
tp156
a(I198
tp157
a(I199
tp158
a(I200
tp159
a(I201
tp160
a(I202
tp161
a(I204
tp162
a(I205
tp163
a(I206
tp164
a(I207
tp165
a(I208
tp166
a(I209
tp167
a(I210
tp168
a(I211
tp169
a(I212
tp170
a(I213
tp171
a(I214
tp172
a(I216
tp173
a(I217
tp174
a(I219
tp175
a(I8412
tp176
a(I221
tp177
a(I223
tp178
a(I224
tp179
a(I226
tp180
a(I227
tp181
a(I228
tp182
a(I229
tp183
a(I230
tp184
a(I231
tp185
a(I233
tp186
a(I234
tp187
a(I235
tp188
a(I236
tp189
a(I237
tp190
a(I238
tp191
a(I243
tp192
a(I244
tp193
a(I245
tp194
a(I246
tp195
a(I247
tp196
a(I248
tp197
a(I249
tp198
a(I250
tp199
a(I251
tp200
a(I252
tp201
a(I255
tp202
a(I256
tp203
a(I257
tp204
a(I259
tp205
a(I260
tp206
a(I261
tp207
a(I262
tp208
a(I263
tp209
a(I265
tp210
a(I266
tp211
a(I267
tp212
a(I268
tp213
a(I270
tp214
a(I271
tp215
a(I272
tp216
a(I2776
tp217
a(I274
tp218
a(I275
tp219
a(I276
tp220
a(I277
tp221
a(I279
tp222
a(I280
tp223
a(I281
tp224
a(I282
tp225
a(I283
tp226
a(I285
tp227
a(I286
tp228
a(I287
tp229
a(I289
tp230
a(I290
tp231
a(I291
tp232
a(I292
tp233
a(I293
tp234
a(I294
tp235
a(I296
tp236
a(I298
tp237
a(I299
tp238
a(I302
tp239
a(I306
tp240
a(I309
tp241
a(I310
tp242
a(I311
tp243
a(I312
tp244
a(I313
tp245
a(I314
tp246
a(I315
tp247
a(I316
tp248
a(I8509
tp249
a(I318
tp250
a(I319
tp251
a(I320
tp252
a(I8513
tp253
a(I322
tp254
a(I323
tp255
a(I325
tp256
a(I326
tp257
a(I327
tp258
a(I329
tp259
a(I330
tp260
a(I331
tp261
a(I332
tp262
a(I333
tp263
a(I335
tp264
a(I336
tp265
a(I337
tp266
a(I338
tp267
a(I339
tp268
a(I341
tp269
a(I342
tp270
a(I343
tp271
a(I345
tp272
a(I346
tp273
a(I347
tp274
a(I348
tp275
a(I349
tp276
a(I350
tp277
a(I351
tp278
a(I352
tp279
a(I353
tp280
a(I358
tp281
a(I359
tp282
a(I8554
tp283
a(I363
tp284
a(I364
tp285
a(I365
tp286
a(I366
tp287
a(I61
tp288
a(I368
tp289
a(I369
tp290
a(I370
tp291
a(I371
tp292
a(I372
tp293
a(I374
tp294
a(I375
tp295
a(I376
tp296
a(I378
tp297
a(I379
tp298
a(I380
tp299
a(I381
tp300
a(I382
tp301
a(I383
tp302
a(I385
tp303
a(I386
tp304
a(I387
tp305
a(I39
I3313
tp306
a(I40
I42
I1592
tp307
a(I40
I42
I49
I2880
tp308
aa(lp309
(I388
tp310
a(I389
tp311
a(I390
tp312
a(I391
tp313
a(I393
tp314
a(I394
tp315
a(I396
tp316
a(I397
tp317
a(I398
tp318
a(I8591
tp319
a(I400
tp320
a(I8593
tp321
a(I402
tp322
a(I403
tp323
a(I404
tp324
a(I405
tp325
a(I406
tp326
a(I407
tp327
a(I408
tp328
a(I409
tp329
a(I410
tp330
a(I411
tp331
a(I412
tp332
a(I413
tp333
a(I414
tp334
a(I415
tp335
a(I416
tp336
a(I417
tp337
a(I419
tp338
a(I421
tp339
a(I422
tp340
a(I423
tp341
a(I424
tp342
a(I425
tp343
a(I426
tp344
a(I427
tp345
a(I428
tp346
a(I8621
tp347
a(I431
tp348
a(I432
tp349
a(I433
tp350
a(I434
tp351
a(I435
tp352
a(I436
tp353
a(I439
tp354
a(I440
tp355
a(I441
tp356
a(I442
tp357
a(I443
tp358
a(I445
tp359
a(I446
tp360
a(I447
tp361
a(I448
tp362
a(I9632
tp363
a(I450
tp364
a(I452
tp365
a(I453
tp366
a(I454
tp367
a(I455
tp368
a(I459
tp369
a(I460
tp370
a(I461
tp371
a(I77
tp372
a(I464
tp373
a(I465
tp374
a(I467
tp375
a(I468
tp376
a(I469
tp377
a(I470
tp378
a(I471
tp379
a(I79
tp380
a(I476
tp381
a(I477
tp382
a(I479
tp383
a(I480
tp384
a(I481
tp385
a(I482
tp386
a(I484
tp387
a(I486
tp388
a(I487
tp389
a(I8680
tp390
a(I489
tp391
a(I490
tp392
a(I491
tp393
a(I492
tp394
a(I493
tp395
a(I494
tp396
a(I495
tp397
a(I496
tp398
a(I498
tp399
a(I500
tp400
a(I501
tp401
a(I502
tp402
a(I503
tp403
a(I504
tp404
a(I505
tp405
a(I506
tp406
a(I8699
tp407
a(I509
tp408
a(I510
tp409
a(I512
tp410
a(I513
tp411
a(I514
tp412
a(I515
tp413
a(I516
tp414
a(I517
tp415
a(I519
tp416
a(I520
tp417
a(I522
tp418
a(I523
tp419
a(I524
tp420
a(I11010
tp421
a(I526
tp422
a(I8719
tp423
a(I528
tp424
a(I530
tp425
a(I533
tp426
a(I534
tp427
a(I535
tp428
a(I536
tp429
a(I537
tp430
a(I1455
tp431
a(I540
tp432
a(I541
tp433
a(I542
tp434
a(I544
tp435
a(I545
tp436
a(I547
tp437
a(I548
tp438
a(I549
tp439
a(I550
tp440
a(I551
tp441
a(I553
tp442
a(I554
tp443
a(I555
tp444
a(I556
tp445
a(I557
tp446
a(I559
tp447
a(I561
tp448
a(I562
tp449
a(I564
tp450
a(I565
tp451
a(I566
tp452
a(I567
tp453
a(I568
tp454
a(I570
tp455
a(I571
tp456
a(I572
tp457
a(I573
tp458
a(I574
tp459
a(I575
tp460
a(I577
tp461
a(I578
tp462
a(I579
tp463
a(I581
tp464
a(I582
tp465
a(I583
tp466
a(I584
tp467
a(I585
tp468
a(I586
tp469
a(I587
tp470
a(I588
tp471
a(I589
tp472
a(I590
tp473
a(I592
tp474
a(I593
tp475
a(I594
tp476
a(I595
tp477
a(I596
tp478
a(I597
tp479
a(I598
tp480
a(I599
tp481
a(I600
tp482
a(I604
tp483
a(I605
tp484
a(I606
tp485
a(I607
tp486
a(I609
tp487
a(I611
tp488
a(I612
tp489
a(I613
tp490
a(I615
tp491
a(I616
tp492
a(I619
tp493
a(I620
tp494
a(I622
tp495
a(I623
tp496
a(I624
tp497
a(I8817
tp498
a(I626
tp499
a(I627
tp500
a(I628
tp501
a(I629
tp502
a(I105
tp503
a(I9663
tp504
a(I637
tp505
a(I638
tp506
a(I8832
tp507
a(I641
tp508
a(I642
tp509
a(I644
tp510
a(I645
tp511
a(I646
tp512
a(I647
tp513
a(I648
tp514
a(I649
tp515
a(I650
tp516
a(I651
tp517
a(I652
tp518
a(I653
tp519
a(I654
tp520
a(I656
tp521
a(I660
tp522
a(I661
tp523
a(I662
tp524
a(I2841
tp525
a(I665
tp526
a(I666
tp527
a(I667
tp528
a(I668
tp529
a(I669
tp530
a(I670
tp531
a(I672
tp532
a(I674
tp533
a(I675
tp534
a(I8868
tp535
a(I677
tp536
a(I678
tp537
a(I681
tp538
a(I682
tp539
a(I683
tp540
a(I684
tp541
a(I685
tp542
a(I686
tp543
a(I688
tp544
a(I691
tp545
a(I692
tp546
a(I693
tp547
a(I8887
tp548
a(I696
tp549
a(I697
tp550
a(I698
tp551
a(I6943
tp552
a(I700
tp553
a(I703
tp554
a(I704
tp555
a(I2848
tp556
a(I706
tp557
a(I707
tp558
a(I708
tp559
a(I709
tp560
a(I711
tp561
a(I712
tp562
a(I713
tp563
a(I714
tp564
a(I715
tp565
a(I716
tp566
a(I717
tp567
a(I719
tp568
a(I720
tp569
a(I721
tp570
a(I8915
tp571
a(I724
tp572
a(I726
tp573
a(I728
tp574
a(I729
tp575
a(I730
tp576
a(I731
tp577
a(I732
tp578
a(I733
tp579
a(I734
tp580
a(I735
tp581
a(I737
tp582
a(I738
tp583
a(I739
tp584
a(I740
tp585
a(I741
tp586
a(I742
tp587
a(I743
tp588
a(I744
tp589
a(I745
tp590
a(I747
tp591
a(I750
tp592
a(I751
tp593
a(I752
tp594
a(I753
tp595
a(I754
tp596
a(I755
tp597
a(I756
tp598
a(I757
tp599
a(I758
tp600
a(I759
tp601
a(I760
tp602
a(I761
tp603
a(I762
tp604
a(I763
tp605
a(I764
tp606
a(I765
tp607
a(I766
tp608
a(I767
tp609
a(I8960
tp610
a(I769
tp611
a(I770
tp612
a(I66
I399
tp613
a(I40
I49
I10488
tp614
a(I39
I40
I42
I50
tp615
aa(lp616
(I771
tp617
a(I772
tp618
a(I773
tp619
a(I774
tp620
a(I775
tp621
a(I778
tp622
a(I780
tp623
a(I782
tp624
a(I784
tp625
a(I786
tp626
a(I8979
tp627
a(I789
tp628
a(I790
tp629
a(I791
tp630
a(I792
tp631
a(I793
tp632
a(I8986
tp633
a(I8987
tp634
a(I796
tp635
a(I797
tp636
a(I798
tp637
a(I799
tp638
a(I800
tp639
a(I801
tp640
a(I802
tp641
a(I5595
tp642
a(I804
tp643
a(I805
tp644
a(I806
tp645
a(I807
tp646
a(I808
tp647
a(I2209
tp648
a(I9002
tp649
a(I811
tp650
a(I812
tp651
a(I813
tp652
a(I814
tp653
a(I815
tp654
a(I816
tp655
a(I817
tp656
a(I818
tp657
a(I9011
tp658
a(I9012
tp659
a(I821
tp660
a(I822
tp661
a(I823
tp662
a(I824
tp663
a(I825
tp664
a(I826
tp665
a(I827
tp666
a(I828
tp667
a(I829
tp668
a(I830
tp669
a(I11061
tp670
a(I832
tp671
a(I833
tp672
a(I834
tp673
a(I836
tp674
a(I9030
tp675
a(I839
tp676
a(I840
tp677
a(I9033
tp678
a(I843
tp679
a(I844
tp680
a(I846
tp681
a(I847
tp682
a(I849
tp683
a(I850
tp684
a(I852
tp685
a(I853
tp686
a(I855
tp687
a(I856
tp688
a(I857
tp689
a(I858
tp690
a(I860
tp691
a(I861
tp692
a(I862
tp693
a(I863
tp694
a(I865
tp695
a(I866
tp696
a(I867
tp697
a(I9060
tp698
a(I9062
tp699
a(I872
tp700
a(I875
tp701
a(I876
tp702
a(I877
tp703
a(I878
tp704
a(I879
tp705
a(I880
tp706
a(I881
tp707
a(I883
tp708
a(I886
tp709
a(I887
tp710
a(I888
tp711
a(I889
tp712
a(I891
tp713
a(I893
tp714
a(I894
tp715
a(I895
tp716
a(I897
tp717
a(I898
tp718
a(I899
tp719
a(I900
tp720
a(I902
tp721
a(I903
tp722
a(I9096
tp723
a(I905
tp724
a(I906
tp725
a(I908
tp726
a(I910
tp727
a(I911
tp728
a(I912
tp729
a(I913
tp730
a(I914
tp731
a(I2883
tp732
a(I916
tp733
a(I917
tp734
a(I919
tp735
a(I920
tp736
a(I922
tp737
a(I923
tp738
a(I925
tp739
a(I926
tp740
a(I927
tp741
a(I928
tp742
a(I2213
tp743
a(I930
tp744
a(I931
tp745
a(I932
tp746
a(I933
tp747
a(I937
tp748
a(I939
tp749
a(I940
tp750
a(I941
tp751
a(I942
tp752
a(I943
tp753
a(I944
tp754
a(I945
tp755
a(I948
tp756
a(I957
tp757
a(I958
tp758
a(I9151
tp759
a(I960
tp760
a(I961
tp761
a(I962
tp762
a(I963
tp763
a(I964
tp764
a(I967
tp765
a(I968
tp766
a(I969
tp767
a(I970
tp768
a(I972
tp769
a(I974
tp770
a(I975
tp771
a(I976
tp772
a(I9169
tp773
a(I9170
tp774
a(I979
tp775
a(I980
tp776
a(I981
tp777
a(I982
tp778
a(I983
tp779
a(I984
tp780
a(I985
tp781
a(I986
tp782
a(I987
tp783
a(I988
tp784
a(I990
tp785
a(I991
tp786
a(I992
tp787
a(I994
tp788
a(I995
tp789
a(I997
tp790
a(I998
tp791
a(I1001
tp792
a(I1002
tp793
a(I1003
tp794
a(I1004
tp795
a(I1005
tp796
a(I1006
tp797
a(I1009
tp798
a(I1010
tp799
a(I1011
tp800
a(I9204
tp801
a(I1013
tp802
a(I1014
tp803
a(I1015
tp804
a(I1016
tp805
a(I1017
tp806
a(I1019
tp807
a(I1020
tp808
a(I1021
tp809
a(I1022
tp810
a(I1023
tp811
a(I1024
tp812
a(I1025
tp813
a(I1026
tp814
a(I1027
tp815
a(I1028
tp816
a(I1029
tp817
a(I1031
tp818
a(I1032
tp819
a(I1035
tp820
a(I1036
tp821
a(I9232
tp822
a(I1041
tp823
a(I9236
tp824
a(I1046
tp825
a(I1047
tp826
a(I1049
tp827
a(I1050
tp828
a(I1052
tp829
a(I1053
tp830
a(I1054
tp831
a(I2490
tp832
a(I1056
tp833
a(I1057
tp834
a(I1058
tp835
a(I1059
tp836
a(I1060
tp837
a(I11492
tp838
a(I1062
tp839
a(I1063
tp840
a(I1064
tp841
a(I1065
tp842
a(I1067
tp843
a(I1068
tp844
a(I1069
tp845
a(I1070
tp846
a(I1071
tp847
a(I1072
tp848
a(I1073
tp849
a(I1074
tp850
a(I1075
tp851
a(I1076
tp852
a(I1077
tp853
a(I1078
tp854
a(I1080
tp855
a(I1081
tp856
a(I1082
tp857
a(I1083
tp858
a(I1084
tp859
a(I1085
tp860
a(I1086
tp861
a(I1087
tp862
a(I1091
tp863
a(I1092
tp864
a(I1094
tp865
a(I1095
tp866
a(I1096
tp867
a(I1097
tp868
a(I1102
tp869
a(I1103
tp870
a(I1104
tp871
a(I1105
tp872
a(I1106
tp873
a(I1108
tp874
a(I1112
tp875
a(I9305
tp876
a(I1114
tp877
a(I1115
tp878
a(I1116
tp879
a(I1120
tp880
a(I1121
tp881
a(I1122
tp882
a(I1123
tp883
a(I1124
tp884
a(I1125
tp885
a(I1127
tp886
a(I1128
tp887
a(I1129
tp888
a(I1130
tp889
a(I1131
tp890
a(I1133
tp891
a(I1135
tp892
a(I1136
tp893
a(I1139
tp894
a(I1140
tp895
a(I1141
tp896
a(I1142
tp897
a(I1144
tp898
a(I1145
tp899
a(I1146
tp900
a(I1147
tp901
a(I1149
tp902
a(I1153
tp903
a(I1154
tp904
a(I1155
tp905
a(I1156
tp906
a(I9349
tp907
a(I1159
tp908
a(I1160
tp909
a(I1161
tp910
a(I1162
tp911
a(I1164
tp912
a(I1166
tp913
a(I1167
tp914
a(I1169
tp915
a(I1173
tp916
a(I1174
tp917
a(I1179
tp918
a(I1180
tp919
a(I2597
I3152
tp920
a(I40
I49
I1057
tp921
a(I40
I49
I167
I685
tp922
aa(lp923
(I1181
tp924
a(I1183
tp925
a(I1184
tp926
a(I1185
tp927
a(I1186
tp928
a(I1189
tp929
a(I1192
tp930
a(I1193
tp931
a(I1196
tp932
a(I1197
tp933
a(I1198
tp934
a(I1565
tp935
a(I9395
tp936
a(I1204
tp937
a(I1210
tp938
a(I1211
tp939
a(I1212
tp940
a(I1215
tp941
a(I1216
tp942
a(I1217
tp943
a(I1218
tp944
a(I1219
tp945
a(I1220
tp946
a(I1221
tp947
a(I4300
tp948
a(I1228
tp949
a(I1229
tp950
a(I1230
tp951
a(I1231
tp952
a(I1233
tp953
a(I1234
tp954
a(I1236
tp955
a(I1237
tp956
a(I1238
tp957
a(I1240
tp958
a(I1243
tp959
a(I1245
tp960
a(I1247
tp961
a(I1248
tp962
a(I1250
tp963
a(I1251
tp964
a(I1252
tp965
a(I1253
tp966
a(I1254
tp967
a(I1255
tp968
a(I1258
tp969
a(I1261
tp970
a(I1263
tp971
a(I1264
tp972
a(I1265
tp973
a(I1266
tp974
a(I1269
tp975
a(I1270
tp976
a(I1273
tp977
a(I1274
tp978
a(I1275
tp979
a(I1276
tp980
a(I663
tp981
a(I1278
tp982
a(I1281
tp983
a(I1282
tp984
a(I1283
tp985
a(I1284
tp986
a(I1285
tp987
a(I1286
tp988
a(I1287
tp989
a(I1289
tp990
a(I1291
tp991
a(I1292
tp992
a(I1294
tp993
a(I1295
tp994
a(I1296
tp995
a(I1297
tp996
a(I1298
tp997
a(I1302
tp998
a(I1303
tp999
a(I1308
tp1000
a(I1309
tp1001
a(I1310
tp1002
a(I1311
tp1003
a(I1312
tp1004
a(I1313
tp1005
a(I1314
tp1006
a(I1316
tp1007
a(I1317
tp1008
a(I1318
tp1009
a(I9511
tp1010
a(I1320
tp1011
a(I1321
tp1012
a(I1325
tp1013
a(I4317
tp1014
a(I1328
tp1015
a(I1330
tp1016
a(I1331
tp1017
a(I1332
tp1018
a(I1333
tp1019
a(I1334
tp1020
a(I9528
tp1021
a(I1337
tp1022
a(I1338
tp1023
a(I1341
tp1024
a(I1343
tp1025
a(I1344
tp1026
a(I1345
tp1027
a(I1346
tp1028
a(I1349
tp1029
a(I9542
tp1030
a(I1351
tp1031
a(I1353
tp1032
a(I1354
tp1033
a(I1355
tp1034
a(I9548
tp1035
a(I1358
tp1036
a(I1361
tp1037
a(I1362
tp1038
a(I1363
tp1039
a(I1364
tp1040
a(I1369
tp1041
a(I1370
tp1042
a(I1372
tp1043
a(I1373
tp1044
a(I1374
tp1045
a(I1377
tp1046
a(I9570
tp1047
a(I5691
tp1048
a(I1380
tp1049
a(I1381
tp1050
a(I1383
tp1051
a(I1385
tp1052
a(I1386
tp1053
a(I4327
tp1054
a(I1388
tp1055
a(I1391
tp1056
a(I1393
tp1057
a(I1394
tp1058
a(I9587
tp1059
a(I1396
tp1060
a(I1397
tp1061
a(I1398
tp1062
a(I1401
tp1063
a(I1403
tp1064
a(I1404
tp1065
a(I1405
tp1066
a(I1408
tp1067
a(I1409
tp1068
a(I1410
tp1069
a(I1411
tp1070
a(I9607
tp1071
a(I1416
tp1072
a(I1418
tp1073
a(I7063
tp1074
a(I1422
tp1075
a(I1423
tp1076
a(I1424
tp1077
a(I1425
tp1078
a(I1426
tp1079
a(I1427
tp1080
a(I1429
tp1081
a(I1431
tp1082
a(I1434
tp1083
a(I1436
tp1084
a(I1438
tp1085
a(I1440
tp1086
a(I1441
tp1087
a(I1443
tp1088
a(I1445
tp1089
a(I1446
tp1090
a(I1447
tp1091
a(I1449
tp1092
a(I9644
tp1093
a(I9647
tp1094
a(I1456
tp1095
a(I1457
tp1096
a(I1460
tp1097
a(I1462
tp1098
a(I1464
tp1099
a(I1465
tp1100
a(I1467
tp1101
a(I1469
tp1102
a(I1470
tp1103
a(I1471
tp1104
a(I9665
tp1105
a(I1474
tp1106
a(I1476
tp1107
a(I1477
tp1108
a(I9670
tp1109
a(I1479
tp1110
a(I1480
tp1111
a(I1481
tp1112
a(I1482
tp1113
a(I1483
tp1114
a(I1485
tp1115
a(I1487
tp1116
a(I1489
tp1117
a(I1490
tp1118
a(I1495
tp1119
a(I1498
tp1120
a(I1499
tp1121
a(I1504
tp1122
a(I1505
tp1123
a(I9704
tp1124
a(I1514
tp1125
a(I1516
tp1126
a(I1518
tp1127
a(I1519
tp1128
a(I1520
tp1129
a(I1521
tp1130
a(I1525
tp1131
a(I1526
tp1132
a(I1528
tp1133
a(I1530
tp1134
a(I1531
tp1135
a(I1534
tp1136
a(I1535
tp1137
a(I1537
tp1138
a(I1538
tp1139
a(I1539
tp1140
a(I1541
tp1141
a(I1543
tp1142
a(I1544
tp1143
a(I1546
tp1144
a(I1547
tp1145
a(I1548
tp1146
a(I1549
tp1147
a(I1550
tp1148
a(I1552
tp1149
a(I1556
tp1150
a(I1557
tp1151
a(I1558
tp1152
a(I1559
tp1153
a(I1560
tp1154
a(I1562
tp1155
a(I1563
tp1156
a(I4962
tp1157
a(I9759
tp1158
a(I1569
tp1159
a(I1570
tp1160
a(I1571
tp1161
a(I9766
tp1162
a(I1576
tp1163
a(I1577
tp1164
a(I1579
tp1165
a(I1580
tp1166
a(I1582
tp1167
a(I1586
tp1168
a(I1588
tp1169
a(I1589
tp1170
a(I1591
tp1171
a(I1592
tp1172
a(I1593
tp1173
a(I1594
tp1174
a(I1595
tp1175
a(I1596
tp1176
a(I1597
tp1177
a(I1598
tp1178
a(I1599
tp1179
a(I1600
tp1180
a(I1632
tp1181
a(I1603
tp1182
a(I1604
tp1183
a(I1605
tp1184
a(I1607
tp1185
a(I1610
tp1186
a(I1612
tp1187
a(I1613
tp1188
a(I1614
tp1189
a(I1615
tp1190
a(I1616
tp1191
a(I1617
tp1192
a(I1618
tp1193
a(I1619
tp1194
a(I1620
tp1195
a(I1625
tp1196
a(I1626
tp1197
a(I1629
tp1198
a(I1630
tp1199
a(I9824
tp1200
a(I1635
tp1201
a(I1636
tp1202
a(I1638
tp1203
a(I1639
tp1204
a(I1640
tp1205
a(I1641
tp1206
a(I1642
tp1207
a(I1643
tp1208
a(I1644
tp1209
a(I1645
tp1210
a(I1647
tp1211
a(I1651
tp1212
a(I9844
tp1213
a(I1653
tp1214
a(I1654
tp1215
a(I1655
tp1216
a(I1656
tp1217
a(I1657
tp1218
a(I1658
tp1219
a(I1659
tp1220
a(I1660
tp1221
a(I1662
tp1222
a(I1663
tp1223
a(I1664
tp1224
a(I1665
tp1225
a(I1666
tp1226
a(I40
I11033
tp1227
a(I40
I648
I770
tp1228
a(I33
I49
I66
I90
tp1229
aa(lp1230
(I1667
tp1231
a(I9860
tp1232
a(I1669
tp1233
a(I1670
tp1234
a(I1671
tp1235
a(I1674
tp1236
a(I1676
tp1237
a(I1677
tp1238
a(I1678
tp1239
a(I1679
tp1240
a(I1680
tp1241
a(I1683
tp1242
a(I1684
tp1243
a(I1686
tp1244
a(I9880
tp1245
a(I1689
tp1246
a(I1690
tp1247
a(I11513
tp1248
a(I1694
tp1249
a(I9888
tp1250
a(I1697
tp1251
a(I1698
tp1252
a(I1699
tp1253
a(I1701
tp1254
a(I1702
tp1255
a(I1703
tp1256
a(I1705
tp1257
a(I1709
tp1258
a(I1710
tp1259
a(I1711
tp1260
a(I1714
tp1261
a(I9907
tp1262
a(I9908
tp1263
a(I1723
tp1264
a(I1726
tp1265
a(I1728
tp1266
a(I1729
tp1267
a(I1730
tp1268
a(I1734
tp1269
a(I1737
tp1270
a(I1739
tp1271
a(I1740
tp1272
a(I1741
tp1273
a(I1742
tp1274
a(I1743
tp1275
a(I1745
tp1276
a(I1746
tp1277
a(I1747
tp1278
a(I1748
tp1279
a(I1753
tp1280
a(I1756
tp1281
a(I1757
tp1282
a(I1759
tp1283
a(I1762
tp1284
a(I1763
tp1285
a(I1764
tp1286
a(I1765
tp1287
a(I15880
tp1288
a(I1769
tp1289
a(I1770
tp1290
a(I1772
tp1291
a(I1773
tp1292
a(I1774
tp1293
a(I1777
tp1294
a(I1780
tp1295
a(I1782
tp1296
a(I1783
tp1297
a(I1784
tp1298
a(I1785
tp1299
a(I1786
tp1300
a(I1787
tp1301
a(I1788
tp1302
a(I1790
tp1303
a(I1791
tp1304
a(I1792
tp1305
a(I1795
tp1306
a(I1796
tp1307
a(I1797
tp1308
a(I1800
tp1309
a(I1804
tp1310
a(I1805
tp1311
a(I1806
tp1312
a(I1808
tp1313
a(I1809
tp1314
a(I1810
tp1315
a(I1811
tp1316
a(I1812
tp1317
a(I1813
tp1318
a(I1814
tp1319
a(I1815
tp1320
a(I1816
tp1321
a(I1818
tp1322
a(I1819
tp1323
a(I1820
tp1324
a(I1821
tp1325
a(I1822
tp1326
a(I1823
tp1327
a(I1824
tp1328
a(I1825
tp1329
a(I10018
tp1330
a(I1827
tp1331
a(I1828
tp1332
a(I1829
tp1333
a(I1830
tp1334
a(I1832
tp1335
a(I1834
tp1336
a(I1835
tp1337
a(I1838
tp1338
a(I1839
tp1339
a(I1841
tp1340
a(I1842
tp1341
a(I1843
tp1342
a(I1845
tp1343
a(I1846
tp1344
a(I1847
tp1345
a(I1848
tp1346
a(I1849
tp1347
a(I1852
tp1348
a(I1853
tp1349
a(I1854
tp1350
a(I1855
tp1351
a(I1856
tp1352
a(I1860
tp1353
a(I1861
tp1354
a(I1862
tp1355
a(I1863
tp1356
a(I1865
tp1357
a(I1866
tp1358
a(I1867
tp1359
a(I1868
tp1360
a(I1869
tp1361
a(I1871
tp1362
a(I1872
tp1363
a(I1873
tp1364
a(I1874
tp1365
a(I3043
tp1366
a(I1877
tp1367
a(I1878
tp1368
a(I1879
tp1369
a(I1880
tp1370
a(I1881
tp1371
a(I1882
tp1372
a(I1883
tp1373
a(I1885
tp1374
a(I1887
tp1375
a(I1890
tp1376
a(I4411
tp1377
a(I1896
tp1378
a(I1897
tp1379
a(I1898
tp1380
a(I1900
tp1381
a(I1902
tp1382
a(I1904
tp1383
a(I1906
tp1384
a(I1908
tp1385
a(I1909
tp1386
a(I1910
tp1387
a(I1911
tp1388
a(I1912
tp1389
a(I1915
tp1390
a(I1916
tp1391
a(I1920
tp1392
a(I1921
tp1393
a(I1923
tp1394
a(I1924
tp1395
a(I1925
tp1396
a(I1926
tp1397
a(I321
tp1398
a(I10120
tp1399
a(I1929
tp1400
a(I1930
tp1401
a(I1931
tp1402
a(I1932
tp1403
a(I10126
tp1404
a(I1935
tp1405
a(I10129
tp1406
a(I1938
tp1407
a(I1939
tp1408
a(I1940
tp1409
a(I10133
tp1410
a(I1946
tp1411
a(I1947
tp1412
a(I1949
tp1413
a(I1952
tp1414
a(I1957
tp1415
a(I1958
tp1416
a(I1959
tp1417
a(I1960
tp1418
a(I1961
tp1419
a(I1963
tp1420
a(I1965
tp1421
a(I1967
tp1422
a(I1972
tp1423
a(I1973
tp1424
a(I1974
tp1425
a(I1976
tp1426
a(I1977
tp1427
a(I10171
tp1428
a(I1980
tp1429
a(I1981
tp1430
a(I1982
tp1431
a(I10176
tp1432
a(I1985
tp1433
a(I1987
tp1434
a(I1988
tp1435
a(I1990
tp1436
a(I1991
tp1437
a(I1992
tp1438
a(I10185
tp1439
a(I11255
tp1440
a(I10189
tp1441
a(I2000
tp1442
a(I2001
tp1443
a(I2003
tp1444
a(I10196
tp1445
a(I2005
tp1446
a(I2007
tp1447
a(I10203
tp1448
a(I2012
tp1449
a(I2013
tp1450
a(I2014
tp1451
a(I2015
tp1452
a(I2016
tp1453
a(I2019
tp1454
a(I2023
tp1455
a(I2024
tp1456
a(I2026
tp1457
a(I2027
tp1458
a(I2031
tp1459
a(I2032
tp1460
a(I2033
tp1461
a(I2034
tp1462
a(I2035
tp1463
a(I10231
tp1464
a(I2040
tp1465
a(I10233
tp1466
a(I2043
tp1467
a(I2044
tp1468
a(I2047
tp1469
a(I2049
tp1470
a(I2050
tp1471
a(I2051
tp1472
a(I2052
tp1473
a(I2053
tp1474
a(I2054
tp1475
a(I2055
tp1476
a(I2057
tp1477
a(I2059
tp1478
a(I2060
tp1479
a(I2061
tp1480
a(I2062
tp1481
a(I2063
tp1482
a(I2065
tp1483
a(I2066
tp1484
a(I3075
tp1485
a(I10260
tp1486
a(I2070
tp1487
a(I2073
tp1488
a(I2075
tp1489
a(I2076
tp1490
a(I10269
tp1491
a(I2078
tp1492
a(I2080
tp1493
a(I2081
tp1494
a(I2082
tp1495
a(I2085
tp1496
a(I4651
tp1497
a(I11271
tp1498
a(I10284
tp1499
a(I2093
tp1500
a(I2095
tp1501
a(I2096
tp1502
a(I2098
tp1503
a(I1715
tp1504
a(I2101
tp1505
a(I2102
tp1506
a(I10295
tp1507
a(I10296
tp1508
a(I1716
tp1509
a(I2108
tp1510
a(I2110
tp1511
a(I2111
tp1512
a(I2112
tp1513
a(I2114
tp1514
a(I2116
tp1515
a(I2117
tp1516
a(I2118
tp1517
a(I2119
tp1518
a(I2120
tp1519
a(I2123
tp1520
a(I9618
tp1521
a(I2127
tp1522
a(I2128
tp1523
a(I2130
tp1524
a(I2131
tp1525
a(I2133
tp1526
a(I2134
tp1527
a(I2136
tp1528
a(I2138
tp1529
a(I2139
tp1530
a(I2141
tp1531
a(I2142
tp1532
a(I2146
tp1533
a(I66
I1127
tp1534
a(I40
I49
I3488
tp1535
a(I33
I40
I49
I1601
tp1536
aa(lp1537
(I2148
tp1538
a(I2151
tp1539
a(I2152
tp1540
a(I2153
tp1541
a(I2154
tp1542
a(I2155
tp1543
a(I2158
tp1544
a(I2161
tp1545
a(I2162
tp1546
a(I2163
tp1547
a(I2165
tp1548
a(I2167
tp1549
a(I2168
tp1550
a(I2169
tp1551
a(I2170
tp1552
a(I10363
tp1553
a(I2172
tp1554
a(I2173
tp1555
a(I2174
tp1556
a(I2178
tp1557
a(I2181
tp1558
a(I10375
tp1559
a(I2185
tp1560
a(I2187
tp1561
a(I2188
tp1562
a(I2189
tp1563
a(I2192
tp1564
a(I2194
tp1565
a(I2195
tp1566
a(I2197
tp1567
a(I2200
tp1568
a(I2202
tp1569
a(I2203
tp1570
a(I8560
tp1571
a(I2210
tp1572
a(I2211
tp1573
a(I9926
tp1574
a(I2215
tp1575
a(I2216
tp1576
a(I2217
tp1577
a(I2219
tp1578
a(I2220
tp1579
a(I2223
tp1580
a(I2224
tp1581
a(I2226
tp1582
a(I10420
tp1583
a(I10421
tp1584
a(I10423
tp1585
a(I2232
tp1586
a(I2234
tp1587
a(I2236
tp1588
a(I2237
tp1589
a(I2238
tp1590
a(I2239
tp1591
a(I2240
tp1592
a(I2241
tp1593
a(I2242
tp1594
a(I2243
tp1595
a(I2244
tp1596
a(I2246
tp1597
a(I10441
tp1598
a(I2250
tp1599
a(I2251
tp1600
a(I2252
tp1601
a(I10445
tp1602
a(I2255
tp1603
a(I10448
tp1604
a(I10449
tp1605
a(I2258
tp1606
a(I2260
tp1607
a(I10454
tp1608
a(I10455
tp1609
a(I2264
tp1610
a(I10458
tp1611
a(I2268
tp1612
a(I2270
tp1613
a(I2272
tp1614
a(I2273
tp1615
a(I2274
tp1616
a(I1979
tp1617
a(I2277
tp1618
a(I10470
tp1619
a(I10471
tp1620
a(I2282
tp1621
a(I10475
tp1622
a(I10476
tp1623
a(I10477
tp1624
a(I2286
tp1625
a(I2287
tp1626
a(I10481
tp1627
a(I10482
tp1628
a(I2291
tp1629
a(I10484
tp1630
a(I2293
tp1631
a(I10487
tp1632
a(I10488
tp1633
a(I2297
tp1634
a(I2298
tp1635
a(I10491
tp1636
a(I2300
tp1637
a(I2301
tp1638
a(I10494
tp1639
a(I4480
tp1640
a(I2307
tp1641
a(I10500
tp1642
a(I10502
tp1643
a(I2311
tp1644
a(I2314
tp1645
a(I2315
tp1646
a(I2316
tp1647
a(I2317
tp1648
a(I10511
tp1649
a(I10512
tp1650
a(I2322
tp1651
a(I2324
tp1652
a(I10517
tp1653
a(I10443
tp1654
a(I2327
tp1655
a(I2328
tp1656
a(I2329
tp1657
a(I2330
tp1658
a(I2333
tp1659
a(I10526
tp1660
a(I10527
tp1661
a(I2336
tp1662
a(I2338
tp1663
a(I2339
tp1664
a(I10532
tp1665
a(I10534
tp1666
a(I10536
tp1667
a(I2345
tp1668
a(I2346
tp1669
a(I10539
tp1670
a(I10541
tp1671
a(I10542
tp1672
a(I2351
tp1673
a(I10544
tp1674
a(I2353
tp1675
a(I2354
tp1676
a(I10547
tp1677
a(I10549
tp1678
a(I2358
tp1679
a(I4489
tp1680
a(I10552
tp1681
a(I2361
tp1682
a(I10554
tp1683
a(I10555
tp1684
a(I2364
tp1685
a(I2365
tp1686
a(I10562
tp1687
a(I10563
tp1688
a(I2372
tp1689
a(I2375
tp1690
a(I10568
tp1691
a(I2377
tp1692
a(I2379
tp1693
a(I10572
tp1694
a(I2381
tp1695
a(I10574
tp1696
a(I2383
tp1697
a(I2384
tp1698
a(I2385
tp1699
a(I2387
tp1700
a(I10580
tp1701
a(I2389
tp1702
a(I2390
tp1703
a(I2391
tp1704
a(I10584
tp1705
a(I2393
tp1706
a(I2394
tp1707
a(I2395
tp1708
a(I2396
tp1709
a(I2399
tp1710
a(I2400
tp1711
a(I2403
tp1712
a(I1766
tp1713
a(I2406
tp1714
a(I10599
tp1715
a(I2409
tp1716
a(I2410
tp1717
a(I2413
tp1718
a(I2414
tp1719
a(I10607
tp1720
a(I2416
tp1721
a(I2417
tp1722
a(I2418
tp1723
a(I10611
tp1724
a(I10612
tp1725
a(I2421
tp1726
a(I2422
tp1727
a(I2424
tp1728
a(I2425
tp1729
a(I2426
tp1730
a(I2427
tp1731
a(I2429
tp1732
a(I2431
tp1733
a(I2432
tp1734
a(I2435
tp1735
a(I10628
tp1736
a(I2437
tp1737
a(I10630
tp1738
a(I2439
tp1739
a(I2441
tp1740
a(I2442
tp1741
a(I10636
tp1742
a(I10447
tp1743
a(I2447
tp1744
a(I2450
tp1745
a(I10643
tp1746
a(I10646
tp1747
a(I10649
tp1748
a(I2459
tp1749
a(I10652
tp1750
a(I10654
tp1751
a(I2464
tp1752
a(I2465
tp1753
a(I2466
tp1754
a(I2469
tp1755
a(I2470
tp1756
a(I2471
tp1757
a(I2472
tp1758
a(I2474
tp1759
a(I2475
tp1760
a(I2476
tp1761
a(I2477
tp1762
a(I2478
tp1763
a(I10671
tp1764
a(I2480
tp1765
a(I2481
tp1766
a(I2482
tp1767
a(I2483
tp1768
a(I10678
tp1769
a(I2487
tp1770
a(I10682
tp1771
a(I2491
tp1772
a(I10684
tp1773
a(I2493
tp1774
a(I2494
tp1775
a(I2496
tp1776
a(I2497
tp1777
a(I10692
tp1778
a(I10693
tp1779
a(I2502
tp1780
a(I2503
tp1781
a(I10697
tp1782
a(I2506
tp1783
a(I2507
tp1784
a(I2511
tp1785
a(I2512
tp1786
a(I2514
tp1787
a(I2515
tp1788
a(I2516
tp1789
a(I2517
tp1790
a(I2518
tp1791
a(I2519
tp1792
a(I2520
tp1793
a(I2522
tp1794
a(I2524
tp1795
a(I2525
tp1796
a(I2526
tp1797
a(I2528
tp1798
a(I2529
tp1799
a(I2533
tp1800
a(I2536
tp1801
a(I2537
tp1802
a(I2538
tp1803
a(I2539
tp1804
a(I2540
tp1805
a(I2541
tp1806
a(I2542
tp1807
a(I10735
tp1808
a(I2544
tp1809
a(I2545
tp1810
a(I2547
tp1811
a(I10740
tp1812
a(I2551
tp1813
a(I2553
tp1814
a(I2555
tp1815
a(I2556
tp1816
a(I2557
tp1817
a(I2558
tp1818
a(I2560
tp1819
a(I2561
tp1820
a(I10754
tp1821
a(I2564
tp1822
a(I2567
tp1823
a(I2570
tp1824
a(I10765
tp1825
a(I2574
tp1826
a(I2575
tp1827
a(I2578
tp1828
a(I10771
tp1829
a(I2584
tp1830
a(I10778
tp1831
a(I86
tp1832
a(I2589
tp1833
a(I2591
tp1834
a(I2363
tp1835
a(I2593
tp1836
a(I2594
tp1837
a(I2597
tp1838
a(I2598
tp1839
a(I2599
tp1840
a(I33
I750
tp1841
a(I33
I49
I705
tp1842
a(I40
I42
I49
I262
tp1843
aa(lp1844
(I10792
tp1845
a(I10793
tp1846
a(I2602
tp1847
a(I2605
tp1848
a(I10799
tp1849
a(I2608
tp1850
a(I2609
tp1851
a(I2610
tp1852
a(I2612
tp1853
a(I2613
tp1854
a(I2615
tp1855
a(I2617
tp1856
a(I10810
tp1857
a(I2619
tp1858
a(I2620
tp1859
a(I2621
tp1860
a(I2622
tp1861
a(I2623
tp1862
a(I10816
tp1863
a(I2625
tp1864
a(I10818
tp1865
a(I10819
tp1866
a(I2629
tp1867
a(I10822
tp1868
a(I2631
tp1869
a(I2632
tp1870
a(I2634
tp1871
a(I2635
tp1872
a(I2636
tp1873
a(I2639
tp1874
a(I2640
tp1875
a(I2645
tp1876
a(I2650
tp1877
a(I2651
tp1878
a(I2652
tp1879
a(I2653
tp1880
a(I2816
tp1881
a(I2655
tp1882
a(I2657
tp1883
a(I2658
tp1884
a(I2660
tp1885
a(I2662
tp1886
a(I2663
tp1887
a(I2664
tp1888
a(I2665
tp1889
a(I2666
tp1890
a(I2667
tp1891
a(I2668
tp1892
a(I10861
tp1893
a(I2670
tp1894
a(I10863
tp1895
a(I2672
tp1896
a(I2673
tp1897
a(I2674
tp1898
a(I2675
tp1899
a(I2676
tp1900
a(I10869
tp1901
a(I2679
tp1902
a(I14100
tp1903
a(I362
tp1904
a(I2686
tp1905
a(I10880
tp1906
a(I2689
tp1907
a(I2690
tp1908
a(I13183
tp1909
a(I2693
tp1910
a(I449
tp1911
a(I2697
tp1912
a(I2698
tp1913
a(I2702
tp1914
a(I2703
tp1915
a(I2704
tp1916
a(I2707
tp1917
a(I2709
tp1918
a(I2710
tp1919
a(I10903
tp1920
a(I2713
tp1921
a(I2714
tp1922
a(I2715
tp1923
a(I2716
tp1924
a(I10909
tp1925
a(I10911
tp1926
a(I10912
tp1927
a(I2721
tp1928
a(I2722
tp1929
a(I2724
tp1930
a(I10918
tp1931
a(I3185
tp1932
a(I2729
tp1933
a(I2730
tp1934
a(I2733
tp1935
a(I2734
tp1936
a(I2735
tp1937
a(I2741
tp1938
a(I2742
tp1939
a(I2743
tp1940
a(I2744
tp1941
a(I2747
tp1942
a(I10940
tp1943
a(I2750
tp1944
a(I10944
tp1945
a(I2755
tp1946
a(I10948
tp1947
a(I2757
tp1948
a(I2761
tp1949
a(I2764
tp1950
a(I2765
tp1951
a(I2768
tp1952
a(I2769
tp1953
a(I2770
tp1954
a(I2772
tp1955
a(I10968
tp1956
a(I2777
tp1957
a(I2784
tp1958
a(I2786
tp1959
a(I2787
tp1960
a(I2788
tp1961
a(I2789
tp1962
a(I2790
tp1963
a(I2793
tp1964
a(I2794
tp1965
a(I2796
tp1966
a(I2797
tp1967
a(I2798
tp1968
a(I2801
tp1969
a(I2803
tp1970
a(I10996
tp1971
a(I2805
tp1972
a(I2806
tp1973
a(I2809
tp1974
a(I2810
tp1975
a(I2811
tp1976
a(I2812
tp1977
a(I2813
tp1978
a(I2814
tp1979
a(I2815
tp1980
a(I11008
tp1981
a(I2818
tp1982
a(I2819
tp1983
a(I2820
tp1984
a(I2821
tp1985
a(I2823
tp1986
a(I2828
tp1987
a(I2831
tp1988
a(I2832
tp1989
a(I2834
tp1990
a(I2835
tp1991
a(I2837
tp1992
a(I2838
tp1993
a(I2839
tp1994
a(I2840
tp1995
a(I11033
tp1996
a(I640
tp1997
a(I2843
tp1998
a(I2844
tp1999
a(I11040
tp2000
a(I2849
tp2001
a(I2852
tp2002
a(I2853
tp2003
a(I2854
tp2004
a(I2855
tp2005
a(I2856
tp2006
a(I11049
tp2007
a(I2859
tp2008
a(I2862
tp2009
a(I2866
tp2010
a(I11059
tp2011
a(I2868
tp2012
a(I2869
tp2013
a(I2870
tp2014
a(I2871
tp2015
a(I13189
tp2016
a(I2873
tp2017
a(I2874
tp2018
a(I2875
tp2019
a(I2876
tp2020
a(I2877
tp2021
a(I2878
tp2022
a(I2879
tp2023
a(I2880
tp2024
a(I2881
tp2025
a(I2882
tp2026
a(I11075
tp2027
a(I2884
tp2028
a(I2885
tp2029
a(I2889
tp2030
a(I2891
tp2031
a(I2892
tp2032
a(I2893
tp2033
a(I2894
tp2034
a(I2895
tp2035
a(I2896
tp2036
a(I2897
tp2037
a(I2898
tp2038
a(I2899
tp2039
a(I2901
tp2040
a(I11094
tp2041
a(I2903
tp2042
a(I915
tp2043
a(I2911
tp2044
a(I11106
tp2045
a(I2915
tp2046
a(I2916
tp2047
a(I2917
tp2048
a(I2918
tp2049
a(I11111
tp2050
a(I2920
tp2051
a(I11115
tp2052
a(I2927
tp2053
a(I2931
tp2054
a(I2932
tp2055
a(I2934
tp2056
a(I2935
tp2057
a(I11130
tp2058
a(I2939
tp2059
a(I2941
tp2060
a(I2943
tp2061
a(I2944
tp2062
a(I2947
tp2063
a(I2948
tp2064
a(I2950
tp2065
a(I2952
tp2066
a(I2953
tp2067
a(I2955
tp2068
a(I2956
tp2069
a(I2959
tp2070
a(I2961
tp2071
a(I2963
tp2072
a(I2964
tp2073
a(I2966
tp2074
a(I2967
tp2075
a(I2968
tp2076
a(I2969
tp2077
a(I11162
tp2078
a(I2976
tp2079
a(I2977
tp2080
a(I2978
tp2081
a(I11174
tp2082
a(I2983
tp2083
a(I2984
tp2084
a(I2985
tp2085
a(I2988
tp2086
a(I2989
tp2087
a(I2990
tp2088
a(I2991
tp2089
a(I2992
tp2090
a(I2993
tp2091
a(I2995
tp2092
a(I4772
tp2093
a(I2998
tp2094
a(I2999
tp2095
a(I11192
tp2096
a(I3001
tp2097
a(I3003
tp2098
a(I3006
tp2099
a(I3007
tp2100
a(I3008
tp2101
a(I3009
tp2102
a(I11204
tp2103
a(I3013
tp2104
a(I3016
tp2105
a(I129
tp2106
a(I3020
tp2107
a(I3022
tp2108
a(I3025
tp2109
a(I3027
tp2110
a(I3029
tp2111
a(I5729
tp2112
a(I3035
tp2113
a(I3036
tp2114
a(I3037
tp2115
a(I507
tp2116
a(I2857
tp2117
a(I3047
tp2118
a(I3048
tp2119
a(I3049
tp2120
a(I3053
tp2121
a(I3054
tp2122
a(I11247
tp2123
a(I3056
tp2124
a(I3057
tp2125
a(I3058
tp2126
a(I3059
tp2127
a(I3060
tp2128
a(I3063
tp2129
a(I3066
tp2130
a(I3068
tp2131
a(I3069
tp2132
a(I3071
tp2133
a(I3072
tp2134
a(I3073
tp2135
a(I11267
tp2136
a(I3077
tp2137
a(I3079
tp2138
a(I3080
tp2139
a(I3081
tp2140
a(I3083
tp2141
a(I3084
tp2142
a(I3085
tp2143
a(I3086
tp2144
a(I3087
tp2145
a(I3090
tp2146
a(I3092
tp2147
a(I49
I1229
tp2148
a(I33
I42
I202
tp2149
a(I40
I42
I49
I366
tp2150
aa(lp2151
(I3094
tp2152
a(I3099
tp2153
a(I3100
tp2154
a(I3102
tp2155
a(I3103
tp2156
a(I11296
tp2157
a(I11297
tp2158
a(I3107
tp2159
a(I3110
tp2160
a(I3120
tp2161
a(I3121
tp2162
a(I3122
tp2163
a(I3126
tp2164
a(I11319
tp2165
a(I3128
tp2166
a(I3129
tp2167
a(I3131
tp2168
a(I3132
tp2169
a(I3133
tp2170
a(I3134
tp2171
a(I11327
tp2172
a(I3136
tp2173
a(I3137
tp2174
a(I3143
tp2175
a(I11339
tp2176
a(I3150
tp2177
a(I3151
tp2178
a(I3152
tp2179
a(I1891
tp2180
a(I3156
tp2181
a(I3157
tp2182
a(I3158
tp2183
a(I3160
tp2184
a(I3161
tp2185
a(I3162
tp2186
a(I527
tp2187
a(I3169
tp2188
a(I3171
tp2189
a(I3172
tp2190
a(I3173
tp2191
a(I3175
tp2192
a(I3178
tp2193
a(I3179
tp2194
a(I3180
tp2195
a(I10088
tp2196
a(I3186
tp2197
a(I3187
tp2198
a(I3190
tp2199
a(I3195
tp2200
a(I3201
tp2201
a(I3203
tp2202
a(I11398
tp2203
a(I3207
tp2204
a(I3209
tp2205
a(I3215
tp2206
a(I3216
tp2207
a(I3218
tp2208
a(I3219
tp2209
a(I3220
tp2210
a(I3222
tp2211
a(I3224
tp2212
a(I3229
tp2213
a(I3269
tp2214
a(I8731
tp2215
a(I3237
tp2216
a(I3238
tp2217
a(I11433
tp2218
a(I3246
tp2219
a(I3247
tp2220
a(I3249
tp2221
a(I3251
tp2222
a(I3254
tp2223
a(I3257
tp2224
a(I3259
tp2225
a(I3260
tp2226
a(I3261
tp2227
a(I3262
tp2228
a(I3265
tp2229
a(I3266
tp2230
a(I11461
tp2231
a(I3270
tp2232
a(I3271
tp2233
a(I3272
tp2234
a(I3273
tp2235
a(I3274
tp2236
a(I5019
tp2237
a(I3277
tp2238
a(I11469
tp2239
a(I3280
tp2240
a(I3279
tp2241
a(I3292
tp2242
a(I3293
tp2243
a(I3294
tp2244
a(I3295
tp2245
a(I3296
tp2246
a(I3298
tp2247
a(I10107
tp2248
a(I3300
tp2249
a(I3308
tp2250
a(I1379
tp2251
a(I3312
tp2252
a(I3313
tp2253
a(I3314
tp2254
a(I3315
tp2255
a(I3316
tp2256
a(I3317
tp2257
a(I3318
tp2258
a(I3319
tp2259
a(I3320
tp2260
a(I3321
tp2261
a(I3322
tp2262
a(I3323
tp2263
a(I3324
tp2264
a(I3325
tp2265
a(I3331
tp2266
a(I3332
tp2267
a(I3333
tp2268
a(I3334
tp2269
a(I3337
tp2270
a(I3339
tp2271
a(I3342
tp2272
a(I3344
tp2273
a(I3346
tp2274
a(I3347
tp2275
a(I3350
tp2276
a(I3352
tp2277
a(I3354
tp2278
a(I3355
tp2279
a(I3358
tp2280
a(I3359
tp2281
a(I3362
tp2282
a(I3366
tp2283
a(I3367
tp2284
a(I3368
tp2285
a(I3369
tp2286
a(I3370
tp2287
a(I3371
tp2288
a(I3372
tp2289
a(I3374
tp2290
a(I3376
tp2291
a(I3384
tp2292
a(I3389
tp2293
a(I3392
tp2294
a(I3395
tp2295
a(I3401
tp2296
a(I3403
tp2297
a(I3405
tp2298
a(I3406
tp2299
a(I11601
tp2300
a(I3410
tp2301
a(I3411
tp2302
a(I3412
tp2303
a(I3413
tp2304
a(I3417
tp2305
a(I3419
tp2306
a(I3421
tp2307
a(I11616
tp2308
a(I3426
tp2309
a(I3432
tp2310
a(I3435
tp2311
a(I3436
tp2312
a(I10130
tp2313
a(I11631
tp2314
a(I3442
tp2315
a(I3446
tp2316
a(I3448
tp2317
a(I3452
tp2318
a(I3457
tp2319
a(I3459
tp2320
a(I3463
tp2321
a(I11500
tp2322
a(I3466
tp2323
a(I3468
tp2324
a(I3469
tp2325
a(I3471
tp2326
a(I3473
tp2327
a(I3475
tp2328
a(I3477
tp2329
a(I3478
tp2330
a(I11672
tp2331
a(I3484
tp2332
a(I3487
tp2333
a(I11680
tp2334
a(I3489
tp2335
a(I3494
tp2336
a(I3495
tp2337
a(I3496
tp2338
a(I3500
tp2339
a(I11693
tp2340
a(I3502
tp2341
a(I3503
tp2342
a(I3504
tp2343
a(I3505
tp2344
a(I3506
tp2345
a(I11700
tp2346
a(I3510
tp2347
a(I3511
tp2348
a(I117
tp2349
a(I3521
tp2350
a(I3522
tp2351
a(I11719
tp2352
a(I3529
tp2353
a(I3530
tp2354
a(I3531
tp2355
a(I3532
tp2356
a(I3533
tp2357
a(I3534
tp2358
a(I3536
tp2359
a(I3538
tp2360
a(I3539
tp2361
a(I3540
tp2362
a(I11733
tp2363
a(I3542
tp2364
a(I3543
tp2365
a(I3547
tp2366
a(I3548
tp2367
a(I3551
tp2368
a(I3552
tp2369
a(I3554
tp2370
a(I11748
tp2371
a(I3559
tp2372
a(I3562
tp2373
a(I3566
tp2374
a(I3570
tp2375
a(I3572
tp2376
a(I3573
tp2377
a(I3574
tp2378
a(I3576
tp2379
a(I3577
tp2380
a(I3578
tp2381
a(I3580
tp2382
a(I3581
tp2383
a(I3582
tp2384
a(I11781
tp2385
a(I3591
tp2386
a(I7206
tp2387
a(I3597
tp2388
a(I11795
tp2389
a(I3605
tp2390
a(I11800
tp2391
a(I3609
tp2392
a(I11802
tp2393
a(I3612
tp2394
a(I3615
tp2395
a(I3617
tp2396
a(I3620
tp2397
a(I3624
tp2398
a(I3631
tp2399
a(I3634
tp2400
a(I3636
tp2401
a(I11830
tp2402
a(I3639
tp2403
a(I3642
tp2404
a(I3643
tp2405
a(I3644
tp2406
a(I11837
tp2407
a(I11841
tp2408
a(I3652
tp2409
a(I3654
tp2410
a(I3660
tp2411
a(I3661
tp2412
a(I3663
tp2413
a(I3664
tp2414
a(I3665
tp2415
a(I3669
tp2416
a(I3674
tp2417
a(I3676
tp2418
a(I3677
tp2419
a(I3678
tp2420
a(I3679
tp2421
a(I3683
tp2422
a(I3684
tp2423
a(I3685
tp2424
a(I3689
tp2425
a(I3690
tp2426
a(I3691
tp2427
a(I3694
tp2428
a(I3697
tp2429
a(I3709
tp2430
a(I3710
tp2431
a(I3712
tp2432
a(I1984
tp2433
a(I3715
tp2434
a(I3716
tp2435
a(I3720
tp2436
a(I3722
tp2437
a(I3723
tp2438
a(I3725
tp2439
a(I3731
tp2440
a(I4718
tp2441
a(I3736
tp2442
a(I3743
tp2443
a(I3752
tp2444
a(I3753
tp2445
a(I3757
tp2446
a(I3760
tp2447
a(I11953
tp2448
a(I3762
tp2449
a(I3763
tp2450
a(I1993
tp2451
a(I3770
tp2452
a(I3772
tp2453
a(I3773
tp2454
a(I49
I4975
tp2455
a(I40
I49
I2727
tp2456
a(I33
I42
I49
I102
tp2457
aa(lp2458
(I3774
tp2459
a(I3775
tp2460
a(I3777
tp2461
a(I3779
tp2462
a(I3783
tp2463
a(I3784
tp2464
a(I3785
tp2465
a(I3789
tp2466
a(I1997
tp2467
a(I3794
tp2468
a(I399
tp2469
a(I10492
tp2470
a(I3800
tp2471
a(I3801
tp2472
a(I3806
tp2473
a(I3807
tp2474
a(I3809
tp2475
a(I3812
tp2476
a(I11558
tp2477
a(I3815
tp2478
a(I4732
tp2479
a(I3828
tp2480
a(I11561
tp2481
a(I3836
tp2482
a(I3839
tp2483
a(I3841
tp2484
a(I3843
tp2485
a(I3845
tp2486
a(I3846
tp2487
a(I3849
tp2488
a(I3850
tp2489
a(I3852
tp2490
a(I3854
tp2491
a(I3855
tp2492
a(I3856
tp2493
a(I3857
tp2494
a(I3858
tp2495
a(I3859
tp2496
a(I3860
tp2497
a(I3862
tp2498
a(I3865
tp2499
a(I3867
tp2500
a(I3868
tp2501
a(I12061
tp2502
a(I4741
tp2503
a(I3873
tp2504
a(I3874
tp2505
a(I3876
tp2506
a(I8838
tp2507
a(I3878
tp2508
a(I12071
tp2509
a(I3880
tp2510
a(I3883
tp2511
a(I3885
tp2512
a(I3887
tp2513
a(I3895
tp2514
a(I3896
tp2515
a(I3897
tp2516
a(I3898
tp2517
a(I3904
tp2518
a(I3905
tp2519
a(I3908
tp2520
a(I3913
tp2521
a(I8864
tp2522
a(I676
tp2523
a(I3924
tp2524
a(I3926
tp2525
a(I3927
tp2526
a(I3933
tp2527
a(I3934
tp2528
a(I3936
tp2529
a(I12131
tp2530
a(I3943
tp2531
a(I3947
tp2532
a(I12946
tp2533
a(I3952
tp2534
a(I3954
tp2535
a(I3965
tp2536
a(I3966
tp2537
a(I3967
tp2538
a(I3969
tp2539
a(I3974
tp2540
a(I3978
tp2541
a(I3979
tp2542
a(I3981
tp2543
a(I3982
tp2544
a(I3984
tp2545
a(I3989
tp2546
a(I3990
tp2547
a(I4761
tp2548
a(I3992
tp2549
a(I3995
tp2550
a(I3996
tp2551
a(I13175
tp2552
a(I4001
tp2553
a(I4002
tp2554
a(I4003
tp2555
a(I4005
tp2556
a(I4008
tp2557
a(I4010
tp2558
a(I4012
tp2559
a(I4014
tp2560
a(I4016
tp2561
a(I4018
tp2562
a(I4020
tp2563
a(I4025
tp2564
a(I4026
tp2565
a(I4027
tp2566
a(I4028
tp2567
a(I4031
tp2568
a(I4033
tp2569
a(I4035
tp2570
a(I4037
tp2571
a(I4038
tp2572
a(I4048
tp2573
a(I4049
tp2574
a(I4051
tp2575
a(I4052
tp2576
a(I4056
tp2577
a(I4057
tp2578
a(I4058
tp2579
a(I4059
tp2580
a(I4061
tp2581
a(I4062
tp2582
a(I12255
tp2583
a(I4065
tp2584
a(I4067
tp2585
a(I4068
tp2586
a(I4069
tp2587
a(I4070
tp2588
a(I4071
tp2589
a(I4076
tp2590
a(I4077
tp2591
a(I4078
tp2592
a(I4081
tp2593
a(I12278
tp2594
a(I4088
tp2595
a(I4094
tp2596
a(I4097
tp2597
a(I4098
tp2598
a(I4099
tp2599
a(I4101
tp2600
a(I4106
tp2601
a(I4108
tp2602
a(I4109
tp2603
a(I4112
tp2604
a(I4113
tp2605
a(I4114
tp2606
a(I4116
tp2607
a(I12309
tp2608
a(I11609
tp2609
a(I4120
tp2610
a(I4122
tp2611
a(I4124
tp2612
a(I4125
tp2613
a(I4127
tp2614
a(I4128
tp2615
a(I4130
tp2616
a(I4132
tp2617
a(I4135
tp2618
a(I4142
tp2619
a(I4143
tp2620
a(I4144
tp2621
a(I4145
tp2622
a(I4146
tp2623
a(I4147
tp2624
a(I4149
tp2625
a(I4157
tp2626
a(I4158
tp2627
a(I8885
tp2628
a(I4160
tp2629
a(I4161
tp2630
a(I4162
tp2631
a(I4163
tp2632
a(I4164
tp2633
a(I4165
tp2634
a(I4166
tp2635
a(I4167
tp2636
a(I4171
tp2637
a(I4172
tp2638
a(I4175
tp2639
a(I4177
tp2640
a(I4178
tp2641
a(I4179
tp2642
a(I4793
tp2643
a(I12960
tp2644
a(I4188
tp2645
a(I4190
tp2646
a(I4194
tp2647
a(I699
tp2648
a(I4196
tp2649
a(I4199
tp2650
a(I4201
tp2651
a(I4202
tp2652
a(I4203
tp2653
a(I4204
tp2654
a(I4208
tp2655
a(I4209
tp2656
a(I4210
tp2657
a(I4215
tp2658
a(I4216
tp2659
a(I137
tp2660
a(I4221
tp2661
a(I4222
tp2662
a(I4224
tp2663
a(I4227
tp2664
a(I4228
tp2665
a(I4230
tp2666
a(I705
tp2667
a(I4238
tp2668
a(I4241
tp2669
a(I4246
tp2670
a(I4252
tp2671
a(I12997
tp2672
a(I4257
tp2673
a(I4258
tp2674
a(I4259
tp2675
a(I4264
tp2676
a(I4266
tp2677
a(I4267
tp2678
a(I4268
tp2679
a(I4270
tp2680
a(I4271
tp2681
a(I4273
tp2682
a(I4278
tp2683
a(I4279
tp2684
a(I4280
tp2685
a(I4281
tp2686
a(I12474
tp2687
a(I4283
tp2688
a(I4285
tp2689
a(I4286
tp2690
a(I4287
tp2691
a(I4289
tp2692
a(I4293
tp2693
a(I4295
tp2694
a(I4296
tp2695
a(I4298
tp2696
a(I12492
tp2697
a(I4305
tp2698
a(I4306
tp2699
a(I4307
tp2700
a(I4308
tp2701
a(I4309
tp2702
a(I4311
tp2703
a(I12504
tp2704
a(I4313
tp2705
a(I12509
tp2706
a(I4318
tp2707
a(I4319
tp2708
a(I4320
tp2709
a(I12513
tp2710
a(I4326
tp2711
a(I13009
tp2712
a(I4335
tp2713
a(I4337
tp2714
a(I4338
tp2715
a(I4340
tp2716
a(I4341
tp2717
a(I4343
tp2718
a(I4345
tp2719
a(I4346
tp2720
a(I4352
tp2721
a(I4354
tp2722
a(I4358
tp2723
a(I4359
tp2724
a(I4361
tp2725
a(I4362
tp2726
a(I4363
tp2727
a(I4364
tp2728
a(I4365
tp2729
a(I4370
tp2730
a(I4372
tp2731
a(I4374
tp2732
a(I4375
tp2733
a(I4377
tp2734
a(I4378
tp2735
a(I13018
tp2736
a(I4382
tp2737
a(I4383
tp2738
a(I4384
tp2739
a(I4385
tp2740
a(I4387
tp2741
a(I4389
tp2742
a(I4390
tp2743
a(I4393
tp2744
a(I4394
tp2745
a(I4397
tp2746
a(I4398
tp2747
a(I4402
tp2748
a(I4403
tp2749
a(I4406
tp2750
a(I4408
tp2751
a(I4831
tp2752
a(I4412
tp2753
a(I4413
tp2754
a(I12608
tp2755
a(I4418
tp2756
a(I4419
tp2757
a(I4420
tp2758
a(I4833
tp2759
a(I4425
tp2760
a(I4430
tp2761
a(I49
I961
tp2762
a(I40
I61
I238
tp2763
a(I40
I42
I8979
I16011
tp2764
aa(lp2765
(I4431
tp2766
a(I2104
tp2767
a(I4434
tp2768
a(I4436
tp2769
a(I4440
tp2770
a(I4445
tp2771
a(I4446
tp2772
a(I4837
tp2773
a(I4448
tp2774
a(I4449
tp2775
a(I4452
tp2776
a(I4454
tp2777
a(I4458
tp2778
a(I4461
tp2779
a(I4465
tp2780
a(I12658
tp2781
a(I4467
tp2782
a(I4469
tp2783
a(I13033
tp2784
a(I4473
tp2785
a(I12672
tp2786
a(I12678
tp2787
a(I4487
tp2788
a(I4844
tp2789
a(I695
tp2790
a(I4494
tp2791
a(I4495
tp2792
a(I4499
tp2793
a(I4502
tp2794
a(I4503
tp2795
a(I4513
tp2796
a(I4514
tp2797
a(I4517
tp2798
a(I4518
tp2799
a(I11676
tp2800
a(I4522
tp2801
a(I4523
tp2802
a(I4525
tp2803
a(I4526
tp2804
a(I4537
tp2805
a(I4541
tp2806
a(I4545
tp2807
a(I4547
tp2808
a(I4548
tp2809
a(I4549
tp2810
a(I4551
tp2811
a(I4553
tp2812
a(I10790
tp2813
a(I4557
tp2814
a(I4558
tp2815
a(I4564
tp2816
a(I4568
tp2817
a(I4569
tp2818
a(I4571
tp2819
a(I4572
tp2820
a(I4573
tp2821
a(I4581
tp2822
a(I4582
tp2823
a(I4583
tp2824
a(I4584
tp2825
a(I4589
tp2826
a(I4590
tp2827
a(I4593
tp2828
a(I4596
tp2829
a(I4605
tp2830
a(I4607
tp2831
a(I4608
tp2832
a(I768
tp2833
a(I4614
tp2834
a(I4616
tp2835
a(I4626
tp2836
a(I4630
tp2837
a(I4631
tp2838
a(I4633
tp2839
a(I4637
tp2840
a(I4641
tp2841
a(I4643
tp2842
a(I4644
tp2843
a(I4647
tp2844
a(I4649
tp2845
a(I12843
tp2846
a(I4656
tp2847
a(I4659
tp2848
a(I4661
tp2849
a(I4662
tp2850
a(I4664
tp2851
a(I12859
tp2852
a(I4678
tp2853
a(I1995
tp2854
a(I12874
tp2855
a(I4683
tp2856
a(I4685
tp2857
a(I4686
tp2858
a(I4687
tp2859
a(I4694
tp2860
a(I4695
tp2861
a(I4698
tp2862
a(I4699
tp2863
a(I4700
tp2864
a(I12063
tp2865
a(I4703
tp2866
a(I4704
tp2867
a(I4706
tp2868
a(I4709
tp2869
a(I4711
tp2870
a(I4715
tp2871
a(I12910
tp2872
a(I4719
tp2873
a(I4721
tp2874
a(I4724
tp2875
a(I12922
tp2876
a(I4731
tp2877
a(I12924
tp2878
a(I12926
tp2879
a(I12930
tp2880
a(I4740
tp2881
a(I12933
tp2882
a(I12934
tp2883
a(I11713
tp2884
a(I12936
tp2885
a(I4745
tp2886
a(I12939
tp2887
a(I12944
tp2888
a(I4754
tp2889
a(I12947
tp2890
a(I12952
tp2891
a(I12953
tp2892
a(I4762
tp2893
a(I4765
tp2894
a(I4768
tp2895
a(I12962
tp2896
a(I795
tp2897
a(I12964
tp2898
a(I12965
tp2899
a(I4775
tp2900
a(I3527
tp2901
a(I4780
tp2902
a(I12974
tp2903
a(I4787
tp2904
a(I12981
tp2905
a(I12982
tp2906
a(I4791
tp2907
a(I12984
tp2908
a(I12985
tp2909
a(I4794
tp2910
a(I4799
tp2911
a(I4801
tp2912
a(I4802
tp2913
a(I4805
tp2914
a(I4807
tp2915
a(I13000
tp2916
a(I13003
tp2917
a(I4812
tp2918
a(I4813
tp2919
a(I4814
tp2920
a(I4817
tp2921
a(I4820
tp2922
a(I4823
tp2923
a(I4824
tp2924
a(I4825
tp2925
a(I4826
tp2926
a(I4827
tp2927
a(I13023
tp2928
a(I4832
tp2929
a(I13025
tp2930
a(I4834
tp2931
a(I2171
tp2932
a(I13029
tp2933
a(I4841
tp2934
a(I4842
tp2935
a(I13036
tp2936
a(I4850
tp2937
a(I13044
tp2938
a(I4853
tp2939
a(I4855
tp2940
a(I13049
tp2941
a(I13050
tp2942
a(I4860
tp2943
a(I13053
tp2944
a(I13055
tp2945
a(I4864
tp2946
a(I13057
tp2947
a(I13061
tp2948
a(I13062
tp2949
a(I13063
tp2950
a(I4872
tp2951
a(I4873
tp2952
a(I4874
tp2953
a(I13069
tp2954
a(I4880
tp2955
a(I4881
tp2956
a(I13075
tp2957
a(I4884
tp2958
a(I4887
tp2959
a(I13080
tp2960
a(I4890
tp2961
a(I4891
tp2962
a(I4892
tp2963
a(I4897
tp2964
a(I4898
tp2965
a(I4900
tp2966
a(I2183
tp2967
a(I4909
tp2968
a(I4912
tp2969
a(I4914
tp2970
a(I13107
tp2971
a(I13110
tp2972
a(I4921
tp2973
a(I4928
tp2974
a(I4930
tp2975
a(I13123
tp2976
a(I13133
tp2977
a(I4942
tp2978
a(I4943
tp2979
a(I9016
tp2980
a(I4946
tp2981
a(I13142
tp2982
a(I13113
tp2983
a(I13146
tp2984
a(I4960
tp2985
a(I13154
tp2986
a(I4965
tp2987
a(I4968
tp2988
a(I13161
tp2989
a(I4970
tp2990
a(I4971
tp2991
a(I4974
tp2992
a(I4975
tp2993
a(I4976
tp2994
a(I4977
tp2995
a(I4982
tp2996
a(I4983
tp2997
a(I4986
tp2998
a(I831
tp2999
a(I4991
tp3000
a(I13185
tp3001
a(I13187
tp3002
a(I4997
tp3003
a(I13190
tp3004
a(I13191
tp3005
a(I5002
tp3006
a(I13198
tp3007
a(I13204
tp3008
a(I13211
tp3009
a(I5021
tp3010
a(I5024
tp3011
a(I5026
tp3012
a(I5027
tp3013
a(I838
tp3014
a(I13223
tp3015
a(I5896
tp3016
a(I5039
tp3017
a(I5041
tp3018
a(I5042
tp3019
a(I841
tp3020
a(I5049
tp3021
a(I5050
tp3022
a(I5051
tp3023
a(I5052
tp3024
a(I5053
tp3025
a(I5061
tp3026
a(I5063
tp3027
a(I13256
tp3028
a(I4941
tp3029
a(I5072
tp3030
a(I5075
tp3031
a(I9038
tp3032
a(I11769
tp3033
a(I5081
tp3034
a(I5082
tp3035
a(I5083
tp3036
a(I5085
tp3037
a(I13278
tp3038
a(I5087
tp3039
a(I5092
tp3040
a(I5097
tp3041
a(I5106
tp3042
a(I13301
tp3043
a(I5114
tp3044
a(I5115
tp3045
a(I5117
tp3046
a(I13314
tp3047
a(I10411
tp3048
a(I5125
tp3049
a(I5126
tp3050
a(I13319
tp3051
a(I5128
tp3052
a(I4808
tp3053
a(I5134
tp3054
a(I13329
tp3055
a(I5138
tp3056
a(I5139
tp3057
a(I5143
tp3058
a(I5144
tp3059
a(I5145
tp3060
a(I5147
tp3061
a(I5148
tp3062
a(I5151
tp3063
a(I5152
tp3064
a(I5153
tp3065
a(I5154
tp3066
a(I5157
tp3067
a(I5159
tp3068
a(I33
I3463
tp3069
a(I33
I49
I385
tp3070
a(I33
I40
I42
I16011
tp3071
aa(lp3072
(I5161
tp3073
a(I5162
tp3074
a(I5163
tp3075
a(I5165
tp3076
a(I5169
tp3077
a(I5170
tp3078
a(I5173
tp3079
a(I5175
tp3080
a(I5176
tp3081
a(I5179
tp3082
a(I13376
tp3083
a(I5195
tp3084
a(I5197
tp3085
a(I10424
tp3086
a(I5208
tp3087
a(I5209
tp3088
a(I5211
tp3089
a(I5212
tp3090
a(I10426
tp3091
a(I5216
tp3092
a(I870
tp3093
a(I13414
tp3094
a(I10428
tp3095
a(I10429
tp3096
a(I13424
tp3097
a(I5233
tp3098
a(I5234
tp3099
a(I5237
tp3100
a(I5240
tp3101
a(I5244
tp3102
a(I5245
tp3103
a(I13438
tp3104
a(I5247
tp3105
a(I5249
tp3106
a(I13444
tp3107
a(I2357
tp3108
a(I5257
tp3109
a(I5258
tp3110
a(I3608
tp3111
a(I5270
tp3112
a(I5272
tp3113
a(I13465
tp3114
a(I5274
tp3115
a(I3610
tp3116
a(I5280
tp3117
a(I5281
tp3118
a(I5283
tp3119
a(I5289
tp3120
a(I5290
tp3121
a(I5297
tp3122
a(I5305
tp3123
a(I10442
tp3124
a(I5315
tp3125
a(I5316
tp3126
a(I5317
tp3127
a(I5318
tp3128
a(I10444
tp3129
a(I5323
tp3130
a(I5324
tp3131
a(I5326
tp3132
a(I5329
tp3133
a(I13525
tp3134
a(I5337
tp3135
a(I5339
tp3136
a(I5340
tp3137
a(I13534
tp3138
a(I5343
tp3139
a(I13537
tp3140
a(I9083
tp3141
a(I5351
tp3142
a(I13544
tp3143
a(I5357
tp3144
a(I5359
tp3145
a(I13553
tp3146
a(I13557
tp3147
a(I10452
tp3148
a(I5371
tp3149
a(I5379
tp3150
a(I179
tp3151
a(I5388
tp3152
a(I5389
tp3153
a(I4995
tp3154
a(I5404
tp3155
a(I5406
tp3156
a(I5407
tp3157
a(I5408
tp3158
a(I5409
tp3159
a(I13602
tp3160
a(I13603
tp3161
a(I13604
tp3162
a(I2908
tp3163
a(I13609
tp3164
a(I5422
tp3165
a(I13616
tp3166
a(I13617
tp3167
a(I5433
tp3168
a(I5435
tp3169
a(I5440
tp3170
a(I5441
tp3171
a(I5443
tp3172
a(I5454
tp3173
a(I5459
tp3174
a(I5466
tp3175
a(I5467
tp3176
a(I13663
tp3177
a(I5473
tp3178
a(I5478
tp3179
a(I5479
tp3180
a(I5482
tp3181
a(I3645
tp3182
a(I5488
tp3183
a(I5490
tp3184
a(I5491
tp3185
a(I5493
tp3186
a(I5497
tp3187
a(I5503
tp3188
a(I5504
tp3189
a(I5506
tp3190
a(I5508
tp3191
a(I5511
tp3192
a(I2284
tp3193
a(I5517
tp3194
a(I2285
tp3195
a(I5525
tp3196
a(I5532
tp3197
a(I5536
tp3198
a(I5539
tp3199
a(I5540
tp3200
a(I5544
tp3201
a(I5547
tp3202
a(I5557
tp3203
a(I5558
tp3204
a(I5560
tp3205
a(I5561
tp3206
a(I5563
tp3207
a(I5564
tp3208
a(I10485
tp3209
a(I5570
tp3210
a(I5571
tp3211
a(I12694
tp3212
a(I13785
tp3213
a(I5594
tp3214
a(I13787
tp3215
a(I5596
tp3216
a(I5597
tp3217
a(I5604
tp3218
a(I5606
tp3219
a(I5609
tp3220
a(I5618
tp3221
a(I5619
tp3222
a(I5642
tp3223
a(I5643
tp3224
a(I10499
tp3225
a(I5652
tp3226
a(I5038
tp3227
a(I5660
tp3228
a(I5662
tp3229
a(I5667
tp3230
a(I5673
tp3231
a(I5681
tp3232
a(I5687
tp3233
a(I1826
tp3234
a(I10507
tp3235
a(I5701
tp3236
a(I5702
tp3237
a(I5704
tp3238
a(I5709
tp3239
a(I5713
tp3240
a(I5721
tp3241
a(I5722
tp3242
a(I2320
tp3243
a(I5730
tp3244
a(I5741
tp3245
a(I5743
tp3246
a(I5753
tp3247
a(I959
tp3248
a(I5756
tp3249
a(I5758
tp3250
a(I2325
tp3251
a(I9152
tp3252
a(I5762
tp3253
a(I2326
tp3254
a(I5768
tp3255
a(I5772
tp3256
a(I5779
tp3257
a(I5782
tp3258
a(I5783
tp3259
a(I5786
tp3260
a(I5789
tp3261
a(I5790
tp3262
a(I5791
tp3263
a(I5798
tp3264
a(I11277
tp3265
a(I14006
tp3266
a(I14007
tp3267
a(I5818
tp3268
a(I5819
tp3269
a(I5822
tp3270
a(I14020
tp3271
a(I5831
tp3272
a(I14026
tp3273
a(I5836
tp3274
a(I14030
tp3275
a(I14041
tp3276
a(I5852
tp3277
a(I5858
tp3278
a(I5860
tp3279
a(I5861
tp3280
a(I5863
tp3281
a(I5864
tp3282
a(I5866
tp3283
a(I5870
tp3284
a(I14063
tp3285
a(I2344
tp3286
a(I5875
tp3287
a(I14069
tp3288
a(I5885
tp3289
a(I5890
tp3290
a(I5893
tp3291
a(I14088
tp3292
a(I5079
tp3293
a(I5903
tp3294
a(I14099
tp3295
a(I5908
tp3296
a(I14103
tp3297
a(I10543
tp3298
a(I5916
tp3299
a(I10514
tp3300
a(I5920
tp3301
a(I2352
tp3302
a(I5925
tp3303
a(I5926
tp3304
a(I14121
tp3305
a(I5932
tp3306
a(I5938
tp3307
a(I5944
tp3308
a(I5949
tp3309
a(I5951
tp3310
a(I5953
tp3311
a(I5954
tp3312
a(I5959
tp3313
a(I5962
tp3314
a(I5963
tp3315
a(I5968
tp3316
a(I5969
tp3317
a(I5974
tp3318
a(I5977
tp3319
a(I5983
tp3320
a(I5987
tp3321
a(I10556
tp3322
a(I5999
tp3323
a(I2092
tp3324
a(I6025
tp3325
a(I14222
tp3326
a(I2371
tp3327
a(I6037
tp3328
a(I6047
tp3329
a(I14249
tp3330
a(I6064
tp3331
a(I2376
tp3332
a(I10569
tp3333
a(I1012
tp3334
a(I6076
tp3335
a(I6077
tp3336
a(I5109
tp3337
a(I14387
tp3338
a(I6083
tp3339
a(I2380
tp3340
a(I6093
tp3341
a(I6096
tp3342
a(I6099
tp3343
a(I6100
tp3344
a(I6106
tp3345
a(I10575
tp3346
a(I6110
tp3347
a(I6113
tp3348
a(I6119
tp3349
a(I6121
tp3350
a(I6127
tp3351
a(I6129
tp3352
a(I6133
tp3353
a(I14327
tp3354
a(I6137
tp3355
a(I6141
tp3356
a(I6142
tp3357
a(I6149
tp3358
a(I6151
tp3359
a(I14348
tp3360
a(I2392
tp3361
a(I6162
tp3362
a(I5123
tp3363
a(I14358
tp3364
a(I14363
tp3365
a(I6174
tp3366
a(I14368
tp3367
a(I14374
tp3368
a(I14375
tp3369
a(I6191
tp3370
a(I6195
tp3371
a(I6201
tp3372
a(I6203
tp3373
a(I6207
tp3374
a(I6215
tp3375
a(I39
I105
tp3376
a(I39
I49
I209
tp3377
a(I33
I40
I42
I1147
tp3378
aa(lp3379
(I10516
tp3380
a(I6220
tp3381
a(I6225
tp3382
a(I1040
tp3383
a(I6243
tp3384
a(I6245
tp3385
a(I6250
tp3386
a(I2407
tp3387
a(I6252
tp3388
a(I6256
tp3389
a(I6257
tp3390
a(I1044
tp3391
a(I6267
tp3392
a(I6269
tp3393
a(I6271
tp3394
a(I6274
tp3395
a(I6277
tp3396
a(I6280
tp3397
a(I13335
tp3398
a(I6285
tp3399
a(I14479
tp3400
a(I10606
tp3401
a(I14487
tp3402
a(I6304
tp3403
a(I10608
tp3404
a(I6310
tp3405
a(I6318
tp3406
a(I1055
tp3407
a(I6335
tp3408
a(I6339
tp3409
a(I6341
tp3410
a(I6344
tp3411
a(I6354
tp3412
a(I6355
tp3413
a(I6357
tp3414
a(I14550
tp3415
a(I6359
tp3416
a(I6360
tp3417
a(I11123
tp3418
a(I6365
tp3419
a(I1061
tp3420
a(I6378
tp3421
a(I14575
tp3422
a(I6388
tp3423
a(I6399
tp3424
a(I10624
tp3425
a(I6404
tp3426
a(I6405
tp3427
a(I6406
tp3428
a(I6407
tp3429
a(I6411
tp3430
a(I9261
tp3431
a(I14613
tp3432
a(I2436
tp3433
a(I2438
tp3434
a(I14635
tp3435
a(I6444
tp3436
a(I14638
tp3437
a(I6448
tp3438
a(I3488
tp3439
a(I3761
tp3440
a(I6462
tp3441
a(I14656
tp3442
a(I14657
tp3443
a(I63
tp3444
a(I2444
tp3445
a(I6486
tp3446
a(I6490
tp3447
a(I6496
tp3448
a(I6498
tp3449
a(I6509
tp3450
a(I6518
tp3451
a(I6521
tp3452
a(I6527
tp3453
a(I14828
tp3454
a(I6544
tp3455
a(I6548
tp3456
a(I2457
tp3457
a(I6554
tp3458
a(I6556
tp3459
a(I6575
tp3460
a(I6576
tp3461
a(I6582
tp3462
a(I6583
tp3463
a(I6584
tp3464
a(I6586
tp3465
a(I6592
tp3466
a(I6594
tp3467
a(I10657
tp3468
a(I6603
tp3469
a(I6608
tp3470
a(I14805
tp3471
a(I6615
tp3472
a(I6625
tp3473
a(I6631
tp3474
a(I6636
tp3475
a(I6638
tp3476
a(I6645
tp3477
a(I13042
tp3478
a(I6656
tp3479
a(I6657
tp3480
a(I14856
tp3481
a(I6681
tp3482
a(I6683
tp3483
a(I12037
tp3484
a(I14882
tp3485
a(I6693
tp3486
a(I6697
tp3487
a(I6699
tp3488
a(I10675
tp3489
a(I6710
tp3490
a(I6717
tp3491
a(I6718
tp3492
a(I14914
tp3493
a(I6723
tp3494
a(I6726
tp3495
a(I6729
tp3496
a(I6738
tp3497
a(I14934
tp3498
a(I6749
tp3499
a(I6752
tp3500
a(I6753
tp3501
a(I6758
tp3502
a(I14954
tp3503
a(I14955
tp3504
a(I6768
tp3505
a(I10686
tp3506
a(I6778
tp3507
a(I6781
tp3508
a(I12774
tp3509
a(I6804
tp3510
a(I5231
tp3511
a(I6814
tp3512
a(I6828
tp3513
a(I2505
tp3514
a(I15034
tp3515
a(I3871
tp3516
a(I15037
tp3517
a(I6859
tp3518
a(I15055
tp3519
a(I15061
tp3520
a(I6882
tp3521
a(I3879
tp3522
a(I6893
tp3523
a(I6894
tp3524
a(I15095
tp3525
a(I6920
tp3526
a(I6922
tp3527
a(I15120
tp3528
a(I6929
tp3529
a(I15127
tp3530
a(I15128
tp3531
a(I1157
tp3532
a(I15145
tp3533
a(I20
tp3534
a(I15161
tp3535
a(I6980
tp3536
a(I6999
tp3537
a(I7000
tp3538
a(I7005
tp3539
a(I7008
tp3540
a(I7011
tp3541
a(I15206
tp3542
a(I7021
tp3543
a(I10731
tp3544
a(I7047
tp3545
a(I10732
tp3546
a(I7051
tp3547
a(I7058
tp3548
a(I5273
tp3549
a(I7069
tp3550
a(I15274
tp3551
a(I8692
tp3552
a(I7101
tp3553
a(I7108
tp3554
a(I904
tp3555
a(I7113
tp3556
a(I7118
tp3557
a(I1601
tp3558
a(I7130
tp3559
a(I15346
tp3560
a(I1875
tp3561
a(I7167
tp3562
a(I7177
tp3563
a(I2562
tp3564
a(I1199
tp3565
a(I15398
tp3566
a(I7210
tp3567
a(I10759
tp3568
a(I2695
tp3569
a(I15407
tp3570
a(I3241
tp3571
a(I7228
tp3572
a(I48
tp3573
a(I15437
tp3574
a(I7253
tp3575
a(I7263
tp3576
a(I7268
tp3577
a(I7277
tp3578
a(I15472
tp3579
a(I7285
tp3580
a(I15493
tp3581
a(I7317
tp3582
a(I14873
tp3583
a(I7332
tp3584
a(I7337
tp3585
a(I16431
tp3586
a(I7374
tp3587
a(I9422
tp3588
a(I15579
tp3589
a(I7397
tp3590
a(I2600
tp3591
a(I15602
tp3592
a(I15619
tp3593
a(I7430
tp3594
a(I10797
tp3595
a(I7442
tp3596
a(I97
tp3597
a(I15639
tp3598
a(I794
tp3599
a(I977
tp3600
a(I15660
tp3601
a(I7473
tp3602
a(I5342
tp3603
a(I10804
tp3604
a(I7482
tp3605
a(I10805
tp3606
a(I5345
tp3607
a(I7496
tp3608
a(I5347
tp3609
a(I2618
tp3610
a(I7519
tp3611
a(I7521
tp3612
a(I5352
tp3613
a(I7538
tp3614
a(I7541
tp3615
a(I2624
tp3616
a(I7555
tp3617
a(I7559
tp3618
a(I2626
tp3619
a(I2627
tp3620
a(I525
tp3621
a(I7586
tp3622
a(I2630
tp3623
a(I5361
tp3624
a(I15792
tp3625
a(I7601
tp3626
a(I15799
tp3627
a(I15833
tp3628
a(I7647
tp3629
a(I10832
tp3630
a(I10075
tp3631
a(I7672
tp3632
a(I7675
tp3633
a(I7684
tp3634
a(I7688
tp3635
a(I7713
tp3636
a(I7745
tp3637
a(I7764
tp3638
a(I7776
tp3639
a(I15989
tp3640
a(I16011
tp3641
a(I16012
tp3642
a(I16014
tp3643
a(I9502
tp3644
a(I7870
tp3645
a(I10355
tp3646
a(I7896
tp3647
a(I7911
tp3648
a(I1319
tp3649
a(I809
tp3650
a(I2685
tp3651
a(I7924
tp3652
a(I7933
tp3653
a(I2688
tp3654
a(I7939
tp3655
a(I7942
tp3656
a(I810
tp3657
a(I7962
tp3658
a(I16156
tp3659
a(I10631
tp3660
a(I7976
tp3661
a(I7979
tp3662
a(I7989
tp3663
a(I7990
tp3664
a(I7992
tp3665
a(I8005
tp3666
a(I12983
tp3667
a(I8015
tp3668
a(I16218
tp3669
a(I8031
tp3670
a(I8032
tp3671
a(I8041
tp3672
a(I3541
tp3673
a(I13089
tp3674
a(I8069
tp3675
a(I8075
tp3676
a(I13090
tp3677
a(I8093
tp3678
a(I6811
tp3679
a(I1350
tp3680
a(I2717
tp3681
a(I8136
tp3682
a(I1356
tp3683
a(I8161
tp3684
a(I2726
tp3685
a(I2727
tp3686
a(I8180
tp3687
a(I9556
tp3688
a(I49
I2316
tp3689
a(I42
I49
I1868
tp3690
a(I40
I42
I49
I977
tp3691
aa.